target datalayout = "e-m:e-p270:32:32-p271:32:32-p272:64:64-i64:64-i128:128-f80:128-n8:16:32:64-S128"
target triple = "x86_64-pc-linux-gnu"

@onig_version.s = internal global [12 x i8] zeroinitializer, align 1
@.str = private unnamed_addr constant [9 x i8] c"%d.%d.%d\00", align 1
@onig_copyright.s = internal global [58 x i8] zeroinitializer, align 16
@.str.1 = private unnamed_addr constant [54 x i8] c"Oniguruma %d.%d.%d : Copyright (C) 2002-2018 K.Kosako\00", align 1

; Function Attrs: nounwind uwtable
define dso_local ptr @onig_version() #0 {
  %1 = call i32 (ptr, i64, ptr, ...) @snprintf(ptr noundef @onig_version.s, i64 noundef 12, ptr noundef @.str, i32 noundef 6, i32 noundef 9, i32 noundef 8) #2
  ret ptr @onig_version.s
}

; Function Attrs: nounwind
declare i32 @snprintf(ptr noundef, i64 noundef, ptr noundef, ...) #1

; Function Attrs: nounwind uwtable
define dso_local ptr @onig_copyright() #0 {
  %1 = call i32 (ptr, i64, ptr, ...) @snprintf(ptr noundef @onig_copyright.s, i64 noundef 58, ptr noundef @.str.1, i32 noundef 6, i32 noundef 9, i32 noundef 8) #2
  ret ptr @onig_copyright.s
}


!llvm.module.flags = !{!0, !1, !2, !3}

!0 = !{i32 1, !"wchar_size", i32 4}
!1 = !{i32 8, !"PIC Level", i32 2}
!2 = !{i32 7, !"PIE Level", i32 2}
!3 = !{i32 7, !"uwtable", i32 2}
